target datalayout = "e-m:e-p270:32:32-p271:32:32-p272:64:64-i64:64-i128:128-f80:128-n8:16:32:64-S128"
target triple = "x86_64-pc-linux-gnu"

%"class.llvm::cl::opt" = type { %"class.llvm::cl::Option", %"class.llvm::cl::opt_storage", %"class.llvm::cl::parser", %"class.std::function" }
%"class.llvm::cl::Option" = type { ptr, i16, i16, i16, i16, %"class.llvm::StringRef", %"class.llvm::StringRef", %"class.llvm::StringRef", %"class.llvm::SmallVector", %"class.llvm::SmallPtrSet" }
%"class.llvm::StringRef" = type { ptr, i64 }
%"class.llvm::SmallVector" = type { %"class.llvm::SmallVectorImpl", %"struct.llvm::SmallVectorStorage" }
%"class.llvm::SmallVectorImpl" = type { %"class.llvm::SmallVectorTemplateBase" }
%"class.llvm::SmallVectorTemplateBase" = type { %"class.llvm::SmallVectorTemplateCommon" }
%"class.llvm::SmallVectorTemplateCommon" = type { %"class.llvm::SmallVectorBase" }
%"class.llvm::SmallVectorBase" = type { ptr, i32, i32 }
%"struct.llvm::SmallVectorStorage" = type { [8 x i8] }
%"class.llvm::SmallPtrSet" = type { %"class.llvm::SmallPtrSetImpl.base", [1 x ptr] }
%"class.llvm::SmallPtrSetImpl.base" = type { %"class.llvm::SmallPtrSetImplBase.base" }
%"class.llvm::SmallPtrSetImplBase.base" = type <{ ptr, ptr, i32, i32, i32 }>
%"class.llvm::cl::opt_storage" = type { i32, [4 x i8], %"struct.llvm::cl::OptionValue" }
%"struct.llvm::cl::OptionValue" = type { %"struct.llvm::cl::OptionValueBase.base", [3 x i8] }
%"struct.llvm::cl::OptionValueBase.base" = type { %"class.llvm::cl::OptionValueCopy.base" }
%"class.llvm::cl::OptionValueCopy.base" = type <{ %"struct.llvm::cl::GenericOptionValue", i32, i8 }>
%"struct.llvm::cl::GenericOptionValue" = type { ptr }
%"class.llvm::cl::parser" = type { %"class.llvm::cl::basic_parser" }
%"class.llvm::cl::basic_parser" = type { %"class.llvm::cl::basic_parser_impl" }
%"class.llvm::cl::basic_parser_impl" = type { ptr }
%"class.std::function" = type { %"class.std::_Function_base", ptr }
%"class.std::_Function_base" = type { %"union.std::_Any_data", ptr }
%"union.std::_Any_data" = type { %"union.std::_Nocopy_types" }
%"union.std::_Nocopy_types" = type { { i64, i64 } }
%"class.llvm::Value" = type { i8, i8, i16, i32, ptr, ptr }
%"class.llvm::function_ref.79" = type { ptr, i64 }
%"class.llvm::function_ref" = type { ptr, i64 }
%"class.(anonymous namespace)::CallAnalyzer" = type { ptr, ptr, %"class.llvm::function_ref", %"class.llvm::function_ref.79", ptr, ptr, ptr, ptr, ptr, i8, i8, i8, i8, i8, i8, i8, i8, i8, i64, i32, i32, %"class.llvm::DenseMap", %"class.llvm::DenseMap.97", %"class.llvm::DenseSet", %"class.llvm::DenseMap.103", %"class.llvm::SmallPtrSet.106", %"class.llvm::DenseMap.109", i8, i8, %"class.llvm::SmallPtrSet.112", i32, i32, i32, i32, i32, i32 }
%"class.llvm::DenseMap" = type <{ ptr, i32, i32, i32, [4 x i8] }>
%"class.llvm::DenseMap.97" = type <{ ptr, i32, i32, i32, [4 x i8] }>
%"class.llvm::DenseSet" = type { %"class.llvm::detail::DenseSetImpl" }
%"class.llvm::detail::DenseSetImpl" = type { %"class.llvm::DenseMap.100" }
%"class.llvm::DenseMap.100" = type <{ ptr, i32, i32, i32, [4 x i8] }>
%"class.llvm::DenseMap.103" = type <{ ptr, i32, i32, i32, [4 x i8] }>
%"class.llvm::SmallPtrSet.106" = type { %"class.llvm::SmallPtrSetImpl.base.108", [16 x ptr] }
%"class.llvm::SmallPtrSetImpl.base.108" = type { %"class.llvm::SmallPtrSetImplBase.base" }
%"class.llvm::DenseMap.109" = type <{ ptr, i32, i32, i32, [4 x i8] }>
%"class.llvm::SmallPtrSet.112" = type { %"class.llvm::SmallPtrSetImpl.base.114", [16 x ptr] }
%"class.llvm::SmallPtrSetImpl.base.114" = type { %"class.llvm::SmallPtrSetImplBase.base" }
%"class.llvm::Use" = type { ptr, ptr, ptr, ptr }
%"struct.std::array" = type { [25 x i32] }
%"class.(anonymous namespace)::InlineCostFeaturesAnalyzer" = type { %"class.(anonymous namespace)::CallAnalyzer", %"struct.std::array", i32, i32, i32, i32, [4 x i8], %"class.llvm::DenseMap.129" }
%"class.llvm::DenseMap.129" = type <{ ptr, i32, i32, i32, [4 x i8] }>

@_ZL9InstrCost = internal global %"class.llvm::cl::opt" zeroinitializer, align 8

; Function Attrs: mustprogress nounwind uwtable
define linkonce_odr hidden noundef i32 @_ZNK4llvm4User14getNumOperandsEv(ptr noundef nonnull align 8 dereferenceable(24) %0) #1 comdat align 2 {
  %2 = alloca ptr, align 8
  store ptr %0, ptr %2, align 8
  %3 = load ptr, ptr %2, align 8
  %4 = getelementptr inbounds nuw %"class.llvm::Value", ptr %3, i32 0, i32 3
  %5 = load i32, ptr %4, align 4
  %6 = and i32 %5, 134217727
  ret i32 %6
}

; Function Attrs: mustprogress nounwind uwtable
define linkonce_odr hidden noundef ptr @_ZN4llvm21VariadicOperandTraitsINS_8CallBaseEE8op_beginEPS1_(ptr noundef %0) #1 comdat align 2 {
  %2 = alloca ptr, align 8
  store ptr %0, ptr %2, align 8
  %3 = load ptr, ptr %2, align 8
  %4 = load ptr, ptr %2, align 8
  %5 = call noundef i32 @_ZNK4llvm4User14getNumOperandsEv(ptr noundef nonnull align 8 dereferenceable(24) %4)
  %6 = zext i32 %5 to i64
  %7 = sub i64 0, %6
  %8 = getelementptr inbounds %"class.llvm::Use", ptr %3, i64 %7
  ret ptr %8
}

; Function Attrs: mustprogress nounwind uwtable
define linkonce_odr hidden noundef ptr @_ZN4llvm8CallBase8op_beginEv(ptr noundef nonnull align 8 dereferenceable(88) %0) #1 comdat align 2 {
  %2 = alloca ptr, align 8
  store ptr %0, ptr %2, align 8
  %3 = load ptr, ptr %2, align 8
  %4 = call noundef ptr @_ZN4llvm21VariadicOperandTraitsINS_8CallBaseEE8op_beginEPS1_(ptr noundef %3)
  ret ptr %4
}

; Function Attrs: mustprogress nounwind uwtable
define linkonce_odr hidden noundef nonnull align 4 dereferenceable(4) ptr @_ZNSt14__array_traitsIiLm25EE6_S_refERA25_Kim(ptr noundef nonnull align 4 dereferenceable(100) %0, i64 noundef %1) #1 comdat align 2 {
  %3 = alloca ptr, align 8
  %4 = alloca i64, align 8
  store ptr %0, ptr %3, align 8
  store i64 %1, ptr %4, align 8
  %5 = load ptr, ptr %3, align 8
  %6 = load i64, ptr %4, align 8
  %7 = getelementptr inbounds [25 x i32], ptr %5, i64 0, i64 %6
  ret ptr %7
}

; Function Attrs: mustprogress nounwind uwtable
define linkonce_odr hidden noundef ptr @_ZN4llvm8CallBase9arg_beginEv(ptr noundef nonnull align 8 dereferenceable(88) %0) #1 comdat align 2 {
  %2 = alloca ptr, align 8
  store ptr %0, ptr %2, align 8
  %3 = load ptr, ptr %2, align 8
  %4 = call noundef ptr @_ZN4llvm8CallBase8op_beginEv(ptr noundef nonnull align 8 dereferenceable(88) %3)
  ret ptr %4
}

; Function Attrs: mustprogress nounwind uwtable
define linkonce_odr hidden noundef nonnull align 4 dereferenceable(4) ptr @_ZNSt5arrayIiLm25EEixEm(ptr noundef nonnull align 4 dereferenceable(100) %0, i64 noundef %1) #1 comdat align 2 {
  %3 = alloca ptr, align 8
  %4 = alloca i64, align 8
  store ptr %0, ptr %3, align 8
  store i64 %1, ptr %4, align 8
  %5 = load ptr, ptr %3, align 8
  %6 = getelementptr inbounds nuw %"struct.std::array", ptr %5, i32 0, i32 0
  %7 = load i64, ptr %4, align 8
  %8 = call noundef nonnull align 4 dereferenceable(4) ptr @_ZNSt14__array_traitsIiLm25EE6_S_refERA25_Kim(ptr noundef nonnull align 4 dereferenceable(100) %6, i64 noundef %7) #2
  ret ptr %8
}

; Function Attrs: mustprogress nounwind uwtable
define linkonce_odr hidden noundef i32 @_ZNK4llvm2cl11opt_storageIiLb0ELb0EE8getValueEv(ptr noundef nonnull align 8 dereferenceable(24) %0) #1 comdat align 2 {
  %2 = alloca ptr, align 8
  store ptr %0, ptr %2, align 8
  %3 = load ptr, ptr %2, align 8
  %4 = getelementptr inbounds nuw %"class.llvm::cl::opt_storage", ptr %3, i32 0, i32 0
  %5 = load i32, ptr %4, align 8
  ret i32 %5
}

; Function Attrs: mustprogress nounwind uwtable
define linkonce_odr hidden noundef ptr @_ZNK4llvm8CallBase9arg_beginEv(ptr noundef nonnull align 8 dereferenceable(88) %0) #1 comdat align 2 {
  %2 = alloca ptr, align 8
  store ptr %0, ptr %2, align 8
  %3 = load ptr, ptr %2, align 8
  %4 = call noundef ptr @_ZN4llvm8CallBase9arg_beginEv(ptr noundef nonnull align 8 dereferenceable(88) %3)
  ret ptr %4
}

; Function Attrs: mustprogress nounwind uwtable
define linkonce_odr hidden noundef ptr @_ZNK4llvm8CallBase7arg_endEv(ptr noundef nonnull align 8 dereferenceable(88) %0) #1 comdat align 2 {
  %2 = alloca ptr, align 8
  store ptr %0, ptr %2, align 8
  %3 = load ptr, ptr %2, align 8
  %4 = call noundef ptr @_ZN4llvm8CallBase7arg_endEv(ptr noundef nonnull align 8 dereferenceable(88) %3)
  ret ptr %4
}

; Function Attrs: mustprogress nounwind uwtable
define internal void @_ZN12_GLOBAL__N_126InlineCostFeaturesAnalyzer9incrementEN4llvm22InlineCostFeatureIndexEl(ptr noundef nonnull align 8 dereferenceable(736) %0, i64 noundef %1, i64 noundef %2) #1 align 2 {
  %4 = alloca ptr, align 8
  %5 = alloca i64, align 8
  %6 = alloca i64, align 8
  store ptr %0, ptr %4, align 8
  store i64 %1, ptr %5, align 8
  store i64 %2, ptr %6, align 8
  %7 = load ptr, ptr %4, align 8
  %8 = load i64, ptr %6, align 8
  %9 = getelementptr inbounds nuw %"class.(anonymous namespace)::InlineCostFeaturesAnalyzer", ptr %7, i32 0, i32 1
  %10 = load i64, ptr %5, align 8
  %11 = call noundef nonnull align 4 dereferenceable(4) ptr @_ZNSt5arrayIiLm25EEixEm(ptr noundef nonnull align 4 dereferenceable(100) %9, i64 noundef %10) #2
  %12 = load i32, ptr %11, align 4
  %13 = sext i32 %12 to i64
  %14 = add nsw i64 %13, %8
  %15 = trunc i64 %14 to i32
  store i32 %15, ptr %11, align 4
  ret void
}

; Function Attrs: mustprogress nounwind uwtable
define linkonce_odr hidden noundef i32 @_ZNK4llvm2cl11opt_storageIiLb0ELb0EEcviEv(ptr noundef nonnull align 8 dereferenceable(24) %0) #1 comdat align 2 {
  %2 = alloca ptr, align 8
  store ptr %0, ptr %2, align 8
  %3 = load ptr, ptr %2, align 8
  %4 = call noundef i32 @_ZNK4llvm2cl11opt_storageIiLb0ELb0EE8getValueEv(ptr noundef nonnull align 8 dereferenceable(24) %3)
  ret i32 %4
}

; Function Attrs: mustprogress nounwind uwtable
define linkonce_odr hidden noundef i32 @_ZNK4llvm8CallBase8arg_sizeEv(ptr noundef nonnull align 8 dereferenceable(88) %0) #1 comdat align 2 {
  %2 = alloca ptr, align 8
  store ptr %0, ptr %2, align 8
  %3 = load ptr, ptr %2, align 8
  %4 = call noundef ptr @_ZNK4llvm8CallBase7arg_endEv(ptr noundef nonnull align 8 dereferenceable(88) %3)
  %5 = call noundef ptr @_ZNK4llvm8CallBase9arg_beginEv(ptr noundef nonnull align 8 dereferenceable(88) %3)
  %6 = ptrtoint ptr %4 to i64
  %7 = ptrtoint ptr %5 to i64
  %8 = sub i64 %6, %7
  %9 = sdiv exact i64 %8, 32
  %10 = trunc i64 %9 to i32
  ret i32 %10
}

; Function Attrs: mustprogress nounwind uwtable
define internal void @_ZN12_GLOBAL__N_126InlineCostFeaturesAnalyzer19onCallArgumentSetupERKN4llvm8CallBaseE(ptr noundef nonnull align 8 dereferenceable(736) %0, ptr noundef nonnull align 8 dereferenceable(88) %1) unnamed_addr #1 align 2 {
  %3 = alloca ptr, align 8
  %4 = alloca ptr, align 8
  store ptr %0, ptr %3, align 8
  store ptr %1, ptr %4, align 8
  %5 = load ptr, ptr %3, align 8
  %6 = load ptr, ptr %4, align 8
  %7 = call noundef i32 @_ZNK4llvm8CallBase8arg_sizeEv(ptr noundef nonnull align 8 dereferenceable(88) %6)
  %8 = call noundef i32 @_ZNK4llvm2cl11opt_storageIiLb0ELb0EEcviEv(ptr noundef nonnull align 8 dereferenceable(24) getelementptr inbounds (i8, ptr @_ZL9InstrCost, i64 128))
  %9 = mul i32 %7, %8
  %10 = zext i32 %9 to i64
  call void @_ZN12_GLOBAL__N_126InlineCostFeaturesAnalyzer9incrementEN4llvm22InlineCostFeatureIndexEl(ptr noundef nonnull align 8 dereferenceable(736) %5, i64 noundef 4, i64 noundef %10)
  ret void
}