; Function Attrs: mustprogress nounwind uwtable
define internal void @_ZN12_GLOBAL__N_126InlineCostFeaturesAnalyzer19onCallArgumentSetupERKN4llvm8CallBaseE(ptr noundef nonnull align 8 captures(none) dereferenceable(736) %0, ptr noundef nonnull align 8 dereferenceable(88) %1) unnamed_addr #0 align 2 {
  %3 = tail call noundef ptr @_ZN4llvm8CallBase7arg_endEv(ptr noundef nonnull align 8 dereferenceable(88) %1)
  %4 = getelementptr inbounds nuw i8, ptr %1, i64 4
  %5 = load i32, ptr %4, align 4
  %6 = and i32 %5, 134217727
  %7 = zext nneg i32 %6 to i64
  %8 = sub nsw i64 0, %7
  %9 = getelementptr inbounds %"class.llvm::Use", ptr %1, i64 %8
  %10 = ptrtoint ptr %3 to i64
  %11 = ptrtoint ptr %9 to i64
  %12 = sub i64 %10, %11
  %13 = lshr exact i64 %12, 5
  %14 = trunc i64 %13 to i32
  %15 = load i32, ptr getelementptr inbounds nuw (i8, ptr @_ZL9InstrCost, i64 128), align 8
  %16 = mul i32 %15, %14
  %17 = getelementptr inbounds nuw i8, ptr %0, i64 608
  %18 = load i32, ptr %17, align 8
  %19 = add i32 %16, %18
  store i32 %19, ptr %17, align 8
  ret void
}